target datalayout = "e-m:e-p270:32:32-p271:32:32-p272:64:64-i64:64-i128:128-f80:128-n8:16:32:64-S128"
target triple = "x86_64-pc-linux-gnu"

%struct.this_type = type { ptr, i32, ptr, ptr, ptr, ptr }
%struct.typedefs = type { ptr, ptr, ptr, i32, ptr }

@struct_level = dso_local global i32 0, align 4
@struct_member_list = dso_local global [128 x ptr] zeroinitializer, align 16
@compat = external global i32, align 4
@braces_open = dso_local global i32 0, align 4
@ECPGstruct_sizeof = internal global ptr null, align 8
@.str.120 = private unnamed_addr constant [7 x i8] c"string\00", align 1
@types = external global ptr, align 8
@.str.131 = private unnamed_addr constant [29 x i8] c"type \22%s\22 is already defined\00", align 1
@.str.152 = private unnamed_addr constant [64 x i8] c"multidimensional arrays for simple data types are not supported\00", align 1
@.str.189 = private unnamed_addr constant [43 x i8] c"initializer not allowed in type definition\00", align 1
@.str.190 = private unnamed_addr constant [48 x i8] c"type name \22string\22 is reserved in Informix mode\00", align 1

; Function Attrs: inlinehint nounwind willreturn memory(read) uwtable
define available_externally i32 @atoi(ptr noundef nonnull %0) #8 {
  %2 = alloca ptr, align 8
  store ptr %0, ptr %2, align 8
  %3 = load ptr, ptr %2, align 8
  %4 = call i64 @strtol(ptr noundef %3, ptr noundef null, i32 noundef 10) #11
  %5 = trunc i64 %4 to i32
  ret i32 %5
}

; Function Attrs: nounwind uwtable
define internal void @add_typedef(ptr noundef %0, ptr noundef %1, ptr noundef %2, i32 noundef %3, ptr noundef %4, ptr noundef %5, i32 noundef %6, i32 noundef %7) #0 {
  %9 = alloca ptr, align 8
  %10 = alloca ptr, align 8
  %11 = alloca ptr, align 8
  %12 = alloca i32, align 4
  %13 = alloca ptr, align 8
  %14 = alloca ptr, align 8
  %15 = alloca i32, align 4
  %16 = alloca i32, align 4
  %17 = alloca ptr, align 8
  %18 = alloca ptr, align 8
  store ptr %0, ptr %9, align 8
  store ptr %1, ptr %10, align 8
  store ptr %2, ptr %11, align 8
  store i32 %3, ptr %12, align 4
  store ptr %4, ptr %13, align 8
  store ptr %5, ptr %14, align 8
  store i32 %6, ptr %15, align 4
  store i32 %7, ptr %16, align 4
  call void @llvm.lifetime.start.p0(i64 8, ptr %17) #11
  call void @llvm.lifetime.start.p0(i64 8, ptr %18) #11
  %19 = load i32, ptr %12, align 4
  %20 = icmp eq i32 %19, 22
  br i1 %20, label %24, label %21

21:                                               ; preds = %8
  %22 = load i32, ptr %12, align 4
  %23 = icmp eq i32 %22, 23
  br i1 %23, label %24, label %28

24:                                               ; preds = %21, %8
  %25 = load i32, ptr %15, align 4
  %26 = icmp eq i32 %25, 1
  br i1 %26, label %27, label %28

27:                                               ; preds = %24
  call void (i32, i32, ptr, ...) @mmerror(i32 noundef 3, i32 noundef 1, ptr noundef @.str.189)
  br label %158

28:                                               ; preds = %24, %21
  %29 = load i32, ptr @compat, align 4
  %30 = icmp eq i32 %29, 1
  br i1 %30, label %34, label %31

31:                                               ; preds = %28
  %32 = load i32, ptr @compat, align 4
  %33 = icmp eq i32 %32, 2
  br i1 %33, label %34, label %39

34:                                               ; preds = %31, %28
  %35 = load ptr, ptr %9, align 8
  %36 = call i32 @strcmp(ptr noundef %35, ptr noundef @.str.120) #13
  %37 = icmp eq i32 %36, 0
  br i1 %37, label %38, label %39

38:                                               ; preds = %34
  call void (i32, i32, ptr, ...) @mmerror(i32 noundef 3, i32 noundef 1, ptr noundef @.str.190)
  br label %157

39:                                               ; preds = %34, %31
  %40 = load ptr, ptr @types, align 8
  store ptr %40, ptr %17, align 8
  br label %41

41:                                               ; preds = %54, %39
  %42 = load ptr, ptr %17, align 8
  %43 = icmp ne ptr %42, null
  br i1 %43, label %44, label %58

44:                                               ; preds = %41
  %45 = load ptr, ptr %9, align 8
  %46 = load ptr, ptr %17, align 8
  %47 = getelementptr inbounds nuw %struct.typedefs, ptr %46, i32 0, i32 0
  %48 = load ptr, ptr %47, align 8
  %49 = call i32 @strcmp(ptr noundef %45, ptr noundef %48) #13
  %50 = icmp eq i32 %49, 0
  br i1 %50, label %51, label %53

51:                                               ; preds = %44
  %52 = load ptr, ptr %9, align 8
  call void (i32, i32, ptr, ...) @mmerror(i32 noundef 3, i32 noundef 1, ptr noundef @.str.131, ptr noundef %52)
  br label %53

53:                                               ; preds = %51, %44
  br label %54

54:                                               ; preds = %53
  %55 = load ptr, ptr %17, align 8
  %56 = getelementptr inbounds nuw %struct.typedefs, ptr %55, i32 0, i32 4
  %57 = load ptr, ptr %56, align 8
  store ptr %57, ptr %17, align 8
  br label %41, !llvm.loop !24

58:                                               ; preds = %41
  %59 = load i32, ptr %12, align 4
  %60 = load ptr, ptr %13, align 8
  %61 = load ptr, ptr %14, align 8
  %62 = load i32, ptr %16, align 4
  call void @adjust_array(i32 noundef %59, ptr noundef %10, ptr noundef %11, ptr noundef %60, ptr noundef %61, i32 noundef %62, i1 noundef zeroext true)
  %63 = call ptr @mm_alloc(i64 noundef 40)
  store ptr %63, ptr %18, align 8
  %64 = load ptr, ptr @types, align 8
  %65 = load ptr, ptr %18, align 8
  %66 = getelementptr inbounds nuw %struct.typedefs, ptr %65, i32 0, i32 4
  store ptr %64, ptr %66, align 8
  %67 = load ptr, ptr %9, align 8
  %68 = call ptr @mm_strdup(ptr noundef %67)
  %69 = load ptr, ptr %18, align 8
  %70 = getelementptr inbounds nuw %struct.typedefs, ptr %69, i32 0, i32 0
  store ptr %68, ptr %70, align 8
  %71 = load i32, ptr @braces_open, align 4
  %72 = load ptr, ptr %18, align 8
  %73 = getelementptr inbounds nuw %struct.typedefs, ptr %72, i32 0, i32 3
  store i32 %71, ptr %73, align 8
  %74 = call ptr @mm_alloc(i64 noundef 48)
  %75 = load ptr, ptr %18, align 8
  %76 = getelementptr inbounds nuw %struct.typedefs, ptr %75, i32 0, i32 1
  store ptr %74, ptr %76, align 8
  %77 = load ptr, ptr %18, align 8
  %78 = getelementptr inbounds nuw %struct.typedefs, ptr %77, i32 0, i32 1
  %79 = load ptr, ptr %78, align 8
  %80 = getelementptr inbounds nuw %struct.this_type, ptr %79, i32 0, i32 0
  store ptr null, ptr %80, align 8
  %81 = load i32, ptr %12, align 4
  %82 = load ptr, ptr %18, align 8
  %83 = getelementptr inbounds nuw %struct.typedefs, ptr %82, i32 0, i32 1
  %84 = load ptr, ptr %83, align 8
  %85 = getelementptr inbounds nuw %struct.this_type, ptr %84, i32 0, i32 1
  store i32 %81, ptr %85, align 8
  %86 = load ptr, ptr %9, align 8
  %87 = call ptr @mm_strdup(ptr noundef %86)
  %88 = load ptr, ptr %18, align 8
  %89 = getelementptr inbounds nuw %struct.typedefs, ptr %88, i32 0, i32 1
  %90 = load ptr, ptr %89, align 8
  %91 = getelementptr inbounds nuw %struct.this_type, ptr %90, i32 0, i32 2
  store ptr %87, ptr %91, align 8
  %92 = load ptr, ptr %10, align 8
  %93 = call ptr @mm_strdup(ptr noundef %92)
  %94 = load ptr, ptr %18, align 8
  %95 = getelementptr inbounds nuw %struct.typedefs, ptr %94, i32 0, i32 1
  %96 = load ptr, ptr %95, align 8
  %97 = getelementptr inbounds nuw %struct.this_type, ptr %96, i32 0, i32 3
  store ptr %93, ptr %97, align 8
  %98 = load ptr, ptr %11, align 8
  %99 = call ptr @mm_strdup(ptr noundef %98)
  %100 = load ptr, ptr %18, align 8
  %101 = getelementptr inbounds nuw %struct.typedefs, ptr %100, i32 0, i32 1
  %102 = load ptr, ptr %101, align 8
  %103 = getelementptr inbounds nuw %struct.this_type, ptr %102, i32 0, i32 4
  store ptr %99, ptr %103, align 8
  %104 = load ptr, ptr @ECPGstruct_sizeof, align 8
  %105 = icmp ne ptr %104, null
  br i1 %105, label %106, label %109

106:                                              ; preds = %58
  %107 = load ptr, ptr @ECPGstruct_sizeof, align 8
  %108 = call ptr @mm_strdup(ptr noundef %107)
  br label %110

109:                                              ; preds = %58
  br label %110

110:                                              ; preds = %109, %106
  %111 = phi ptr [ %108, %106 ], [ null, %109 ]
  %112 = load ptr, ptr %18, align 8
  %113 = getelementptr inbounds nuw %struct.typedefs, ptr %112, i32 0, i32 1
  %114 = load ptr, ptr %113, align 8
  %115 = getelementptr inbounds nuw %struct.this_type, ptr %114, i32 0, i32 5
  store ptr %111, ptr %115, align 8
  %116 = load i32, ptr %12, align 4
  %117 = icmp eq i32 %116, 22
  br i1 %117, label %121, label %118

118:                                              ; preds = %110
  %119 = load i32, ptr %12, align 4
  %120 = icmp eq i32 %119, 23
  br i1 %120, label %121, label %127

121:                                              ; preds = %118, %110
  %122 = load i32, ptr @struct_level, align 4
  %123 = sext i32 %122 to i64
  %124 = getelementptr inbounds [128 x ptr], ptr @struct_member_list, i64 0, i64 %123
  %125 = load ptr, ptr %124, align 8
  %126 = call ptr @ECPGstruct_member_dup(ptr noundef %125)
  br label %128

127:                                              ; preds = %118
  br label %128

128:                                              ; preds = %127, %121
  %129 = phi ptr [ %126, %121 ], [ null, %127 ]
  %130 = load ptr, ptr %18, align 8
  %131 = getelementptr inbounds nuw %struct.typedefs, ptr %130, i32 0, i32 2
  store ptr %129, ptr %131, align 8
  %132 = load i32, ptr %12, align 4
  %133 = icmp ne i32 %132, 14
  br i1 %133, label %134, label %155

134:                                              ; preds = %128
  %135 = load i32, ptr %12, align 4
  %136 = icmp ne i32 %135, 32
  br i1 %136, label %137, label %155

137:                                              ; preds = %134
  %138 = load i32, ptr %12, align 4
  %139 = icmp ne i32 %138, 1
  br i1 %139, label %140, label %155

140:                                              ; preds = %137
  %141 = load i32, ptr %12, align 4
  %142 = icmp ne i32 %141, 2
  br i1 %142, label %143, label %155

143:                                              ; preds = %140
  %144 = load i32, ptr %12, align 4
  %145 = icmp ne i32 %144, 30
  br i1 %145, label %146, label %155

146:                                              ; preds = %143
  %147 = load ptr, ptr %18, align 8
  %148 = getelementptr inbounds nuw %struct.typedefs, ptr %147, i32 0, i32 1
  %149 = load ptr, ptr %148, align 8
  %150 = getelementptr inbounds nuw %struct.this_type, ptr %149, i32 0, i32 4
  %151 = load ptr, ptr %150, align 8
  %152 = call i32 @atoi(ptr noundef %151) #13
  %153 = icmp sge i32 %152, 0
  br i1 %153, label %154, label %155

154:                                              ; preds = %146
  call void (i32, i32, ptr, ...) @mmerror(i32 noundef 3, i32 noundef 1, ptr noundef @.str.152)
  br label %155

155:                                              ; preds = %154, %146, %143, %140, %137, %134, %128
  %156 = load ptr, ptr %18, align 8
  store ptr %156, ptr @types, align 8
  br label %157

157:                                              ; preds = %155, %38
  br label %158

158:                                              ; preds = %157, %27
  call void @llvm.lifetime.end.p0(i64 8, ptr %18) #11
  call void @llvm.lifetime.end.p0(i64 8, ptr %17) #11
  ret void
}