; Function Attrs: nounwind uwtable
define internal fastcc void @add_typedef(ptr noundef %0, ptr noundef %1, ptr noundef %2, i32 noundef %3, ptr noundef %4, ptr noundef %5, i32 noundef range(i32 0, 2) %6, i32 noundef range(i32 0, 2) %7) unnamed_addr #0 {
  %9 = alloca ptr, align 8
  %10 = alloca ptr, align 8
  store ptr %1, ptr %9, align 8
  store ptr %2, ptr %10, align 8
  %11 = and i32 %3, -2
  %or.cond = icmp eq i32 %11, 22
  %12 = icmp ne i32 %6, 0
  %or.cond3 = and i1 %or.cond, %12
  br i1 %or.cond3, label %13, label %14

13:                                               ; preds = %8
  tail call void (i32, i32, ptr, ...) @mmerror(i32 noundef 3, i32 noundef 1, ptr noundef nonnull @.str.189) #15
  br label %74

14:                                               ; preds = %8
  %15 = load i32, ptr @compat, align 4
  %16 = add i32 %15, -1
  %or.cond5 = icmp ult i32 %16, 2
  br i1 %or.cond5, label %17, label %21

17:                                               ; preds = %14
  %18 = tail call i32 @strcmp(ptr noundef nonnull dereferenceable(1) %0, ptr noundef nonnull dereferenceable(7) @.str.120) #17
  %19 = icmp eq i32 %18, 0
  br i1 %19, label %20, label %21

20:                                               ; preds = %17
  tail call void (i32, i32, ptr, ...) @mmerror(i32 noundef 3, i32 noundef 1, ptr noundef nonnull @.str.190) #15
  br label %74

21:                                               ; preds = %14, %17
  %.052 = load ptr, ptr @types, align 8
  %.not53 = icmp eq ptr %.052, null
  br i1 %.not53, label %._crit_edge, label %.lr.ph

.lr.ph:                                           ; preds = %21, %26
  %.054 = phi ptr [ %.0, %26 ], [ %.052, %21 ]
  %22 = load ptr, ptr %.054, align 8
  %23 = tail call i32 @strcmp(ptr noundef nonnull dereferenceable(1) %0, ptr noundef nonnull dereferenceable(1) %22) #17
  %24 = icmp eq i32 %23, 0
  br i1 %24, label %25, label %26

25:                                               ; preds = %.lr.ph
  tail call void (i32, i32, ptr, ...) @mmerror(i32 noundef 3, i32 noundef 1, ptr noundef nonnull @.str.131, ptr noundef nonnull %0) #15
  br label %26

26:                                               ; preds = %.lr.ph, %25
  %27 = getelementptr inbounds nuw i8, ptr %.054, i64 32
  %.0 = load ptr, ptr %27, align 8
  %.not = icmp eq ptr %.0, null
  br i1 %.not, label %._crit_edge, label %.lr.ph, !llvm.loop !24

._crit_edge:                                      ; preds = %26, %21
  call void @adjust_array(i32 noundef %3, ptr noundef nonnull %9, ptr noundef nonnull %10, ptr noundef %4, ptr noundef %5, i32 noundef %7, i1 noundef zeroext true) #15
  %28 = call ptr @mm_alloc(i64 noundef 40) #15
  %29 = load ptr, ptr @types, align 8
  %30 = getelementptr inbounds nuw i8, ptr %28, i64 32
  store ptr %29, ptr %30, align 8
  %31 = call ptr @mm_strdup(ptr noundef %0) #15
  store ptr %31, ptr %28, align 8
  %32 = load i32, ptr @braces_open, align 4
  %33 = getelementptr inbounds nuw i8, ptr %28, i64 24
  store i32 %32, ptr %33, align 8
  %34 = call ptr @mm_alloc(i64 noundef 48) #15
  %35 = getelementptr inbounds nuw i8, ptr %28, i64 8
  store ptr %34, ptr %35, align 8
  store ptr null, ptr %34, align 8
  %36 = load ptr, ptr %35, align 8
  %37 = getelementptr inbounds nuw i8, ptr %36, i64 8
  store i32 %3, ptr %37, align 8
  %38 = call ptr @mm_strdup(ptr noundef %0) #15
  %39 = load ptr, ptr %35, align 8
  %40 = getelementptr inbounds nuw i8, ptr %39, i64 16
  store ptr %38, ptr %40, align 8
  %41 = load ptr, ptr %9, align 8
  %42 = call ptr @mm_strdup(ptr noundef %41) #15
  %43 = load ptr, ptr %35, align 8
  %44 = getelementptr inbounds nuw i8, ptr %43, i64 24
  store ptr %42, ptr %44, align 8
  %45 = load ptr, ptr %10, align 8
  %46 = call ptr @mm_strdup(ptr noundef %45) #15
  %47 = load ptr, ptr %35, align 8
  %48 = getelementptr inbounds nuw i8, ptr %47, i64 32
  store ptr %46, ptr %48, align 8
  %49 = load ptr, ptr @ECPGstruct_sizeof, align 8
  %.not51 = icmp eq ptr %49, null
  br i1 %.not51, label %52, label %50

50:                                               ; preds = %._crit_edge
  %51 = call ptr @mm_strdup(ptr noundef nonnull %49) #15
  br label %52

52:                                               ; preds = %._crit_edge, %50
  %53 = phi ptr [ %51, %50 ], [ null, %._crit_edge ]
  %54 = load ptr, ptr %35, align 8
  %55 = getelementptr inbounds nuw i8, ptr %54, i64 40
  store ptr %53, ptr %55, align 8
  br i1 %or.cond, label %56, label %62

56:                                               ; preds = %52
  %57 = load i32, ptr @struct_level, align 4
  %58 = sext i32 %57 to i64
  %59 = getelementptr inbounds [128 x ptr], ptr @struct_member_list, i64 0, i64 %58
  %60 = load ptr, ptr %59, align 8
  %61 = call ptr @ECPGstruct_member_dup(ptr noundef %60) #15
  br label %62

62:                                               ; preds = %52, %56
  %63 = phi ptr [ %61, %56 ], [ null, %52 ]
  %64 = getelementptr inbounds nuw i8, ptr %28, i64 16
  store ptr %63, ptr %64, align 8
  switch i32 %3, label %65 [
    i32 32, label %73
    i32 30, label %73
    i32 14, label %73
    i32 2, label %73
    i32 1, label %73
  ]

65:                                               ; preds = %62
  %66 = load ptr, ptr %35, align 8
  %67 = getelementptr inbounds nuw i8, ptr %66, i64 32
  %68 = load ptr, ptr %67, align 8
  %69 = call i64 @strtol(ptr noundef nonnull captures(none) %68, ptr noundef null, i32 noundef 10) #15
  %70 = and i64 %69, 2147483648
  %71 = icmp eq i64 %70, 0
  br i1 %71, label %72, label %73

72:                                               ; preds = %65
  call void (i32, i32, ptr, ...) @mmerror(i32 noundef 3, i32 noundef 1, ptr noundef nonnull @.str.152) #15
  br label %73

73:                                               ; preds = %62, %62, %62, %62, %62, %72, %65
  store ptr %28, ptr @types, align 8
  br label %74

74:                                               ; preds = %20, %73, %13
  ret void
}